Certificate:
    Data:
        Version: 3 (0x2)
        Serial Number:
            15:48:00:46:50
    Signature Algorithm: sha256WithRSAEncryption
        Issuer: C=US, ST=ID, O=IofT, OU=Engr, CN=WebpanelCA
        Validity
            Not Before: Jan 20 17:17:31 2019 GMT
            Not After : Nov 28 17:17:31 2051 GMT
        Subject: C=US, O=IofT, OU=Engr, CN=webpanel
        Subject Public Key Info:
            Public Key Algorithm: rsaEncryption
                Public-Key: (2048 bit)
                Modulus:
                    00:e3:f4:60:eb:83:33:b5:01:fe:c8:d0:aa:2e:60:
                    ce:ed:db:ff:17:68:e2:4e:d9:05:ce:a6:c5:51:8b:
                    c5:13:09:03:82:b8:6e:d4:60:99:63:36:17:43:bf:
                    3e:22:69:98:bc:77:e2:c7:75:be:97:d6:45:ea:4e:
                    cc:17:8f:52:ba:9b:7e:e6:40:1f:ee:82:82:3d:cb:
                    ce:a0:cb:6f:46:ed:c7:5d:7e:88:3d:02:37:48:bc:
                    58:f9:98:ab:33:da:88:5f:ce:06:bc:b5:1f:2e:fd:
                    07:fc:33:9c:6f:90:ca:e4:65:9f:39:19:c3:ff:64:
                    14:19:03:bf:9c:e8:12:89:76:49:55:5d:5e:ad:a9:
                    27:52:20:f3:18:c7:80:91:a4:74:a4:66:19:a7:29:
                    8e:75:04:7a:ae:87:15:4c:b5:14:9b:c5:ae:ee:b7:
                    34:fc:88:40:e0:15:d5:f5:fb:4f:e3:90:f9:77:49:
                    ca:6a:93:62:43:84:fb:74:2c:e6:4b:22:d8:3b:65:
                    89:30:94:11:e5:3e:19:ec:aa:b1:f9:57:a3:e9:f9:
                    79:fb:df:7c:41:a6:d1:93:f8:7b:d8:e3:f9:a2:bb:
                    35:7f:34:ed:c7:d8:56:10:d2:a8:e2:fd:28:34:0d:
                    0b:4a:fd:6e:58:bc:cc:df:21:8f:6a:df:76:f2:58:
                    a3:15
                Exponent: 65537 (0x10001)
        X509v3 extensions:
            X509v3 Basic Constraints: 
                CA:FALSE
            Netscape Cert Type: 
                SSL Server
            Netscape Comment: 
                OpenSSL Generated Certificate
            X509v3 Subject Key Identifier: 
                66:4A:7B:FC:76:21:B2:F9:A8:58:45:00:82:DB:98:B2:51:80:85:FC
            X509v3 Authority Key Identifier: 
                keyid:DC:A8:80:D1:3C:CF:35:B2:C4:CD:EB:0E:A9:96:D8:C9:83:01:64:10

            X509v3 Subject Alternative Name: 
                IP Address:127.0.1.1, IP Address:127.0.0.1, DNS:beaglebone, DNS:beaglebone.localdomain
    Signature Algorithm: sha256WithRSAEncryption
         95:bc:57:b3:3f:5e:e8:9d:35:b6:e9:ba:03:0c:92:cd:d8:9b:
         7a:dc:b5:28:fc:b4:b1:f0:a1:34:2e:61:5a:33:95:ba:ff:40:
         ad:39:31:4e:c8:0d:5a:a0:f8:28:57:ea:20:34:6d:c9:f3:2c:
         a1:e1:8d:a1:d9:7e:5d:ea:1c:5d:34:61:8e:d9:ac:78:3c:bb:
         bf:9c:47:78:e7:94:d5:76:1b:c4:fc:78:14:63:a6:01:2a:48:
         9d:4b:72:70:53:13:ba:7b:ce:8b:10:eb:f7:c3:ee:b6:fc:a2:
         9f:7e:4e:b9:40:44:5d:96:38:03:ab:91:3d:78:8d:e0:fc:af:
         7f:53:06:7e:fa:ec:13:ac:60:84:c3:49:7a:09:73:75:0f:85:
         26:48:49:a0:29:4a:c7:66:d4:90:6d:bd:02:fa:02:67:16:9a:
         b5:3c:ad:71:79:29:7a:cf:ab:89:ba:4b:9b:35:4e:c6:1c:84:
         8b:f3:cf:d5:f2:cd:a9:f7:12:8d:bf:1c:6a:51:34:8f:2e:57:
         81:97:ad:f9:37:a4:2a:e7:9d:b2:d7:c7:de:a1:a7:76:1f:5e:
         f2:32:4b:dd:a1:1e:36:39:03:cb:b6:18:41:be:9c:5f:f9:3e:
         fd:67:83:6d:62:e9:0f:7e:c8:a2:37:4c:dc:5e:ca:c1:38:5c:
         a8:46:c1:ff
-----BEGIN CERTIFICATE-----
MIID1zCCAr+gAwIBAgIFFUgARlAwDQYJKoZIhvcNAQELBQAwTTELMAkGA1UEBhMC
VVMxCzAJBgNVBAgMAklEMQ0wCwYDVQQKDARJb2ZUMQ0wCwYDVQQLDARFbmdyMRMw
EQYDVQQDDApXZWJwYW5lbENBMCAXDTE5MDEyMDE3MTczMVoYDzIwNTExMTI4MTcx
NzMxWjA+MQswCQYDVQQGEwJVUzENMAsGA1UECgwESW9mVDENMAsGA1UECwwERW5n
cjERMA8GA1UEAwwId2VicGFuZWwwggEiMA0GCSqGSIb3DQEBAQUAA4IBDwAwggEK
AoIBAQDj9GDrgzO1Af7I0KouYM7t2/8XaOJO2QXOpsVRi8UTCQOCuG7UYJljNhdD
vz4iaZi8d+LHdb6X1kXqTswXj1K6m37mQB/ugoI9y86gy29G7cddfog9AjdIvFj5
mKsz2ohfzga8tR8u/Qf8M5xvkMrkZZ85GcP/ZBQZA7+c6BKJdklVXV6tqSdSIPMY
x4CRpHSkZhmnKY51BHquhxVMtRSbxa7utzT8iEDgFdX1+0/jkPl3Scpqk2JDhPt0
LOZLItg7ZYkwlBHlPhnsqrH5V6Pp+Xn733xBptGT+HvY4/miuzV/NO3H2FYQ0qji
/Sg0DQtK/W5YvMzfIY9q33byWKMVAgMBAAGjgcowgccwCQYDVR0TBAIwADARBglg
hkgBhvhCAQEEBAMCBkAwLAYJYIZIAYb4QgENBB8WHU9wZW5TU0wgR2VuZXJhdGVk
IENlcnRpZmljYXRlMB0GA1UdDgQWBBRmSnv8diGy+ahYRQCC25iyUYCF/DAfBgNV
HSMEGDAWgBTcqIDRPM81ssTN6w6pltjJgwFkEDA5BgNVHREEMjAwhwR/AAEBhwR/
AAABggpiZWFnbGVib25lghZiZWFnbGVib25lLmxvY2FsZG9tYWluMA0GCSqGSIb3
DQEBCwUAA4IBAQCVvFezP17onTW26boDDJLN2Jt63LUo/LSx8KE0LmFaM5W6/0Ct
OTFOyA1aoPgoV+ogNG3J8yyh4Y2h2X5d6hxdNGGO2ax4PLu/nEd455TVdhvE/HgU
Y6YBKkidS3JwUxO6e86LEOv3w+62/KKffk65QERdljgDq5E9eI3g/K9/UwZ++uwT
rGCEw0l6CXN1D4UmSEmgKUrHZtSQbb0C+gJnFpq1PK1xeSl6z6uJukubNU7GHISL
88/V8s2p9xKNvxxqUTSPLleBl635N6Qq552y18feoad2H17yMkvdoR42OQPLthhB
vpxf+T79Z4NtYukPfsiiN0zcXsrBOFyoRsH/
-----END CERTIFICATE-----
